; Function Attrs: mustprogress uwtable
define noundef nonnull ptr @_ZN12MeshDocument10addNewMeshERK6CMeshORK7QStringb(ptr noundef nonnull align 8 dereferenceable(192) %0, ptr noundef nonnull align 8 dereferenceable(1196) %1, ptr nocapture noundef nonnull readonly align 8 dereferenceable(8) %2, i1 noundef zeroext %3) local_unnamed_addr #9 align 2 personality ptr @__gxx_personality_v0 {
  %5 = alloca %class.QString, align 8
  %6 = alloca %class.CMeshO, align 8
  %7 = tail call noundef ptr @_ZN7QString16fromAscii_helperEPKci(ptr noundef nonnull @.str.6, i32 noundef 0)
  store ptr %7, ptr %5, align 8
  %8 = invoke noundef ptr @_ZN12MeshDocument10addNewMeshE7QStringRKS0_b(ptr noundef nonnull align 8 dereferenceable(192) %0, ptr noundef nonnull %5, ptr noundef nonnull align 8 dereferenceable(8) %2, i1 noundef zeroext %3)
          to label %9 unwind label %16

9:                                                ; preds = %4
  %10 = load ptr, ptr %5, align 8
  %11 = load atomic i32, ptr %10 monotonic, align 4
  switch i32 %11, label %_ZN9QtPrivate8RefCount5derefEv.exit.i [
    i32 0, label %_ZN9QtPrivate8RefCount5derefEv.exit.thread2.i
    i32 -1, label %_ZN7QStringD2Ev.exit
  ]

_ZN9QtPrivate8RefCount5derefEv.exit.i:            ; preds = %9
  %12 = atomicrmw sub ptr %10, i32 1 seq_cst, align 4
  %.not.i = icmp eq i32 %12, 1
  br i1 %.not.i, label %_ZN9QtPrivate8RefCount5derefEv.exit._ZN9QtPrivate8RefCount5derefEv.exit.thread2_crit_edge.i, label %_ZN7QStringD2Ev.exit

_ZN9QtPrivate8RefCount5derefEv.exit._ZN9QtPrivate8RefCount5derefEv.exit.thread2_crit_edge.i: ; preds = %_ZN9QtPrivate8RefCount5derefEv.exit.i
  %.pre.i = load ptr, ptr %5, align 8
  br label %_ZN9QtPrivate8RefCount5derefEv.exit.thread2.i

_ZN9QtPrivate8RefCount5derefEv.exit.thread2.i:    ; preds = %_ZN9QtPrivate8RefCount5derefEv.exit._ZN9QtPrivate8RefCount5derefEv.exit.thread2_crit_edge.i, %9
  %13 = phi ptr [ %.pre.i, %_ZN9QtPrivate8RefCount5derefEv.exit._ZN9QtPrivate8RefCount5derefEv.exit.thread2_crit_edge.i ], [ %10, %9 ]
  call void @_ZN10QArrayData10deallocateEPS_mm(ptr noundef %13, i64 noundef 2, i64 noundef 8) #28
  br label %_ZN7QStringD2Ev.exit

_ZN7QStringD2Ev.exit:                             ; preds = %9, %_ZN9QtPrivate8RefCount5derefEv.exit.i, %_ZN9QtPrivate8RefCount5derefEv.exit.thread2.i
  call void @_ZN6CMeshOC1ERKS_(ptr noundef nonnull align 8 dereferenceable(1196) %6, ptr noundef nonnull align 8 dereferenceable(1196) %1)
  %14 = invoke noundef nonnull align 8 dereferenceable(1196) ptr @_ZN6CMeshOaSES_(ptr noundef nonnull align 8 dereferenceable(1196) %8, ptr noundef nonnull %6)
          to label %15 unwind label %18

15:                                               ; preds = %_ZN7QStringD2Ev.exit
  call void @_ZN6CMeshOD1Ev(ptr noundef nonnull align 8 dereferenceable(1196) %6) #28
  call void @_ZN9MeshModel19updateBoxAndNormalsEv(ptr noundef nonnull align 8 dereferenceable(1288) %8)
  call void @_ZN9MeshModel14updateDataMaskEv(ptr noundef nonnull align 8 dereferenceable(1288) %8)
  ret ptr %8

16:                                               ; preds = %4
  %17 = landingpad { ptr, i32 }
          cleanup
  call void @_ZN7QStringD2Ev(ptr noundef nonnull align 8 dereferenceable(8) %5) #28
  br label %20

18:                                               ; preds = %_ZN7QStringD2Ev.exit
  %19 = landingpad { ptr, i32 }
          cleanup
  call void @_ZN6CMeshOD1Ev(ptr noundef nonnull align 8 dereferenceable(1196) %6) #28
  br label %20

20:                                               ; preds = %18, %16
  %.pn = phi { ptr, i32 } [ %19, %18 ], [ %17, %16 ]
  resume { ptr, i32 } %.pn
}